target datalayout = "e-m:e-p270:32:32-p271:32:32-p272:64:64-i64:64-i128:128-f80:128-n8:16:32:64-S128"
target triple = "x86_64-pc-linux-gnu"

%class.RegMask = type { %union.anon, i32, i32 }
%union.anon = type { [11 x i64] }
%class.Matcher = type { %class.PhaseTransform, %class.ResourceArea, %class.Node_List, %class.VectorSet, %class.VectorSet, %class.VectorSet, ptr, ptr, ptr, ptr, i32, i32, ptr, ptr, %class.Node_List, %class.Node_Array, ptr, i32, [16 x ptr], [16 x ptr], [16 x ptr], i8, ptr, ptr, ptr, ptr, %class.Node_List, i32, i32, i32, i32, ptr, ptr, %class.RegMask, %class.RegMask }
%class.PhaseTransform = type { ptr, %class.Phase }
%class.Phase = type { i32, ptr }
%class.ResourceArea = type { %class.Arena }
%class.Arena = type { i8, i8, i64, ptr, ptr, ptr, ptr }
%class.VectorSet = type { i32, ptr, i32, ptr }
%class.Node_Array = type { ptr, i32, ptr }
%class.Node_List = type <{ %class.Node_Array, i32, [4 x i8] }>
%class.State = type { [315 x i32], [315 x i16], i32, ptr, [2 x ptr] }
%class.MachNode = type { %class.Node.base, i8, i16, ptr }
%class.Node.base = type <{ ptr, ptr, ptr, i32, i32, i32, i32, i32, i32, i32 }>

; Function Attrs: mustprogress nounwind uwtable
define linkonce_odr hidden noundef i32 @_ZN5State4ruleEj(ptr noundef nonnull align 8 dereferenceable(1920) %0, i32 noundef %1) #1 comdat align 2 {
  %3 = alloca ptr, align 8
  %4 = alloca i32, align 4
  store ptr %0, ptr %3, align 8
  store i32 %1, ptr %4, align 4
  %5 = load ptr, ptr %3, align 8
  %6 = getelementptr inbounds %class.State, ptr %5, i32 0, i32 1
  %7 = load i32, ptr %4, align 4
  %8 = zext i32 %7 to i64
  %9 = getelementptr inbounds [315 x i16], ptr %6, i64 0, i64 %8
  %10 = load i16, ptr %9, align 2
  %11 = zext i16 %10 to i32
  %12 = ashr i32 %11, 1
  ret i32 %12
}

; Function Attrs: mustprogress nounwind uwtable
define hidden void @_ZN7Matcher21ReduceInst_Chain_RuleEP5StateiRP4NodeP8MachNode(ptr noundef nonnull align 8 dereferenceable(1008) %0, ptr noundef %1, i32 noundef %2, ptr noundef nonnull align 8 dereferenceable(8) %3, ptr noundef %4) #1 align 2 {
  %6 = alloca ptr, align 8
  %7 = alloca ptr, align 8
  %8 = alloca i32, align 4
  %9 = alloca ptr, align 8
  %10 = alloca ptr, align 8
  %11 = alloca i32, align 4
  %12 = alloca i32, align 4
  %13 = alloca i32, align 4
  %14 = alloca i32, align 4
  %15 = alloca ptr, align 8
  store ptr %0, ptr %6, align 8
  store ptr %1, ptr %7, align 8
  store i32 %2, ptr %8, align 4
  store ptr %3, ptr %9, align 8
  store ptr %4, ptr %10, align 8
  %16 = load ptr, ptr %6, align 8
  %17 = getelementptr inbounds %class.Matcher, ptr %16, i32 0, i32 7
  %18 = load ptr, ptr %17, align 8
  %19 = load i32, ptr %8, align 4
  %20 = sext i32 %19 to i64
  %21 = getelementptr inbounds i32, ptr %18, i64 %20
  %22 = load i32, ptr %21, align 4
  store i32 %22, ptr %11, align 4
  %23 = load ptr, ptr %7, align 8
  %24 = load i32, ptr %11, align 4
  %25 = call noundef i32 @_ZN5State4ruleEj(ptr noundef nonnull align 8 dereferenceable(1920) %23, i32 noundef %24)
  store i32 %25, ptr %12, align 4
  %26 = load i32, ptr %11, align 4
  %27 = icmp sle i32 127, %26
  br i1 %27, label %28, label %33

28:                                               ; preds = %5
  %29 = load i32, ptr %11, align 4
  %30 = icmp slt i32 %29, 128
  br i1 %30, label %31, label %33

31:                                               ; preds = %28
  %32 = load i32, ptr %12, align 4
  br label %35

33:                                               ; preds = %28, %5
  %34 = load i32, ptr %11, align 4
  br label %35

35:                                               ; preds = %33, %31
  %36 = phi i32 [ %32, %31 ], [ %34, %33 ]
  store i32 %36, ptr %13, align 4
  %37 = load ptr, ptr %7, align 8
  %38 = load i32, ptr %13, align 4
  %39 = call noundef i32 @_ZN5State4ruleEj(ptr noundef nonnull align 8 dereferenceable(1920) %37, i32 noundef %38)
  store i32 %39, ptr %14, align 4
  %40 = load i32, ptr %14, align 4
  %41 = icmp ult i32 %40, 128
  br i1 %41, label %42, label %54

42:                                               ; preds = %35
  %43 = load ptr, ptr %7, align 8
  %44 = load i32, ptr %12, align 4
  %45 = call noundef ptr @_ZN5State17MachOperGeneratorEi(ptr noundef nonnull align 8 dereferenceable(1920) %43, i32 noundef %44)
  %46 = load ptr, ptr %10, align 8
  %47 = getelementptr inbounds %class.MachNode, ptr %46, i32 0, i32 3
  %48 = load ptr, ptr %47, align 8
  %49 = getelementptr inbounds ptr, ptr %48, i64 1
  store ptr %45, ptr %49, align 8
  %50 = load ptr, ptr %7, align 8
  %51 = load i32, ptr %14, align 4
  %52 = load ptr, ptr %9, align 8
  %53 = load ptr, ptr %10, align 8
  call void @_ZN7Matcher10ReduceOperEP5StateiRP4NodeP8MachNode(ptr noundef nonnull align 8 dereferenceable(1008) %16, ptr noundef %50, i32 noundef %51, ptr noundef nonnull align 8 dereferenceable(8) %52, ptr noundef %53)
  br label %71

54:                                               ; preds = %35
  %55 = load ptr, ptr %7, align 8
  %56 = getelementptr inbounds %class.Matcher, ptr %16, i32 0, i32 6
  %57 = load ptr, ptr %56, align 8
  %58 = load i32, ptr %13, align 4
  %59 = sext i32 %58 to i64
  %60 = getelementptr inbounds i32, ptr %57, i64 %59
  %61 = load i32, ptr %60, align 4
  %62 = call noundef ptr @_ZN5State17MachOperGeneratorEi(ptr noundef nonnull align 8 dereferenceable(1920) %55, i32 noundef %61)
  %63 = load ptr, ptr %10, align 8
  %64 = getelementptr inbounds %class.MachNode, ptr %63, i32 0, i32 3
  %65 = load ptr, ptr %64, align 8
  %66 = getelementptr inbounds ptr, ptr %65, i64 1
  store ptr %62, ptr %66, align 8
  store ptr inttoptr (i64 1 to ptr), ptr %15, align 8
  %67 = load ptr, ptr %10, align 8
  %68 = load ptr, ptr %7, align 8
  %69 = load i32, ptr %14, align 4
  %70 = call noundef ptr @_ZN7Matcher10ReduceInstEP5StateiRP4Node(ptr noundef nonnull align 8 dereferenceable(1008) %16, ptr noundef %68, i32 noundef %69, ptr noundef nonnull align 8 dereferenceable(8) %15)
  call void @_ZN4Node7add_reqEPS_(ptr noundef nonnull align 8 dereferenceable(52) %67, ptr noundef %70)
  br label %71

71:                                               ; preds = %54, %42
  ret void
}