; Function Attrs: mustprogress nounwind uwtable
define hidden void @_ZN7Matcher21ReduceInst_Chain_RuleEP5StateiRP4NodeP8MachNode(ptr noundef nonnull align 8 dereferenceable(1008) %0, ptr noundef %1, i32 noundef %2, ptr nocapture noundef nonnull writeonly align 8 dereferenceable(8) %3, ptr noundef %4) local_unnamed_addr #0 align 2 {
  %6 = alloca ptr, align 8
  %7 = getelementptr inbounds i8, ptr %0, i64 208
  %8 = load ptr, ptr %7, align 8
  %9 = sext i32 %2 to i64
  %10 = getelementptr inbounds i32, ptr %8, i64 %9
  %11 = load i32, ptr %10, align 4
  %12 = getelementptr inbounds i8, ptr %1, i64 1260
  %13 = zext i32 %11 to i64
  %14 = getelementptr inbounds [315 x i16], ptr %12, i64 0, i64 %13
  %15 = load i16, ptr %14, align 2
  %16 = lshr i16 %15, 1
  %17 = zext nneg i16 %16 to i32
  %or.cond = icmp eq i32 %11, 127
  %18 = select i1 %or.cond, i32 %17, i32 %11
  %19 = zext i32 %18 to i64
  %20 = getelementptr inbounds [315 x i16], ptr %12, i64 0, i64 %19
  %21 = load i16, ptr %20, align 2
  %22 = lshr i16 %21, 1
  %23 = zext nneg i16 %22 to i32
  %24 = icmp ult i16 %21, 256
  br i1 %24, label %25, label %30

25:                                               ; preds = %5
  %26 = tail call noundef ptr @_ZN5State17MachOperGeneratorEi(ptr noundef nonnull align 8 dereferenceable(1920) %1, i32 noundef %17) #15
  %27 = getelementptr inbounds i8, ptr %4, i64 56
  %28 = load ptr, ptr %27, align 8
  %29 = getelementptr inbounds i8, ptr %28, i64 8
  store ptr %26, ptr %29, align 8
  tail call void @_ZN7Matcher10ReduceOperEP5StateiRP4NodeP8MachNode(ptr noundef nonnull align 8 dereferenceable(1008) %0, ptr noundef nonnull %1, i32 noundef %23, ptr noundef nonnull align 8 dereferenceable(8) %3, ptr noundef %4)
  br label %41

30:                                               ; preds = %5
  %31 = getelementptr inbounds i8, ptr %0, i64 200
  %32 = load ptr, ptr %31, align 8
  %33 = sext i32 %18 to i64
  %34 = getelementptr inbounds i32, ptr %32, i64 %33
  %35 = load i32, ptr %34, align 4
  %36 = tail call noundef ptr @_ZN5State17MachOperGeneratorEi(ptr noundef nonnull align 8 dereferenceable(1920) %1, i32 noundef %35) #15
  %37 = getelementptr inbounds i8, ptr %4, i64 56
  %38 = load ptr, ptr %37, align 8
  %39 = getelementptr inbounds i8, ptr %38, i64 8
  store ptr %36, ptr %39, align 8
  store ptr inttoptr (i64 1 to ptr), ptr %6, align 8
  %40 = call noundef ptr @_ZN7Matcher10ReduceInstEP5StateiRP4Node(ptr noundef nonnull align 8 dereferenceable(1008) %0, ptr noundef nonnull %1, i32 noundef %23, ptr noundef nonnull align 8 dereferenceable(8) %6)
  call void @_ZN4Node7add_reqEPS_(ptr noundef nonnull align 8 dereferenceable(52) %4, ptr noundef %40) #15
  br label %41

41:                                               ; preds = %30, %25
  ret void
}